; Function Attrs: null_pointer_is_valid sspstrong uwtable
define internal i32 @dissect_camel_SCIGPRSBillingChargingCharacteristics(i1 noundef zeroext %0, ptr noundef %1, i32 noundef %2, ptr noundef %3, ptr noundef %4, i32 noundef %5) #0 {
  %7 = alloca ptr, align 8
  call void @llvm.lifetime.start.p0(i64 8, ptr nonnull %7) #12
  %8 = call i32 @dissect_ber_octet_string(i1 noundef zeroext %0, ptr noundef %3, ptr noundef %4, ptr noundef %1, i32 noundef %2, i32 noundef %5, ptr noundef nonnull %7)
  %9 = load ptr, ptr %7, align 8
  %.not = icmp eq ptr %9, null
  br i1 %.not, label %19, label %10

10:                                               ; preds = %6
  %11 = getelementptr inbounds nuw i8, ptr %3, i64 24
  %12 = load ptr, ptr %11, align 8
  %13 = load i32, ptr @ett_camel_CAMEL_SCIGPRSBillingChargingCharacteristics, align 4
  %14 = call ptr @proto_item_add_subtree(ptr noundef %12, i32 noundef %13)
  %15 = load ptr, ptr %7, align 8
  %16 = load i32, ptr @hf_camel_CAMEL_SCIGPRSBillingChargingCharacteristics, align 4
  %17 = load i32, ptr @ett_camel_CAMEL_SCIGPRSBillingChargingCharacteristics, align 4
  %18 = call i32 @dissect_ber_sequence(i1 noundef zeroext false, ptr noundef %3, ptr noundef %14, ptr noundef %15, i32 noundef 0, ptr noundef nonnull @CAMEL_SCIGPRSBillingChargingCharacteristics_sequence, i32 noundef %16, i32 noundef %17)
  br label %19

19:                                               ; preds = %6, %10
  call void @llvm.lifetime.end.p0(i64 8, ptr nonnull %7) #12
  ret i32 %8
}